Certificate:
    Data:
        Version: 3 (0x2)
        Serial Number: 1 (0x1)
        Signature Algorithm: sha256WithRSAEncryption
        Issuer: C=US, CN=Test Root CA
        Validity
            Not Before: Nov  8 09:41:47 2022 GMT
            Not After : Mar 25 09:41:47 2050 GMT
        Subject: C=US, CN=Test Intermediate CA
        Subject Public Key Info:
            Public Key Algorithm: rsaEncryption
                RSA Public-Key: (2048 bit)
                Modulus:
                    00:c4:53:61:e9:fc:20:39:ee:dd:20:fc:1b:1b:85:
                    6f:e9:3f:44:02:4c:f6:97:71:1e:6c:9c:0a:1d:88:
                    bf:96:b1:11:15:a5:3f:36:0d:8b:c6:89:aa:32:7d:
                    28:8c:13:b9:05:66:99:21:f7:79:ed:08:e2:88:80:
                    f6:41:43:c4:ff:98:38:fb:26:01:f9:a4:9c:62:1a:
                    56:ae:4c:37:9c:06:8a:f6:57:01:c4:5e:4a:3e:fe:
                    af:cb:92:77:1c:aa:38:cb:1b:4a:b2:92:c0:2f:d2:
                    4f:00:8e:d2:42:1a:81:8b:36:b0:75:a0:24:1e:0c:
                    60:fa:68:ff:59:79:c3:73:90:22:99:7e:19:4d:9c:
                    49:73:46:09:91:b3:85:9c:19:40:e0:9b:06:14:7a:
                    7a:77:d4:1f:8d:08:df:bb:4c:f7:41:77:62:b6:d7:
                    3c:fe:97:b3:55:51:bf:59:67:5c:e8:96:48:19:bc:
                    bc:51:ab:c7:ee:38:11:50:48:c7:7f:03:93:a8:17:
                    1a:a5:dc:65:6f:6c:f7:13:d0:e5:f9:55:11:84:c3:
                    3c:66:71:23:5c:97:9f:31:ea:da:4b:53:9d:69:c6:
                    bb:30:98:d3:a7:3c:1d:2c:cf:7c:53:47:67:b2:34:
                    1f:68:00:2c:59:1a:87:92:6a:ae:d6:6d:2f:d6:4e:
                    54:d1
                Exponent: 65537 (0x10001)
        X509v3 extensions:
            X509v3 Basic Constraints: critical
                CA:TRUE
            X509v3 Key Usage: critical
                Certificate Sign
    Signature Algorithm: sha256WithRSAEncryption
         52:9f:30:5e:26:1d:f9:f7:b6:4e:2f:de:e0:19:86:c7:c8:ce:
         19:a4:27:e3:db:4e:9b:c5:68:29:9c:3a:89:e0:be:12:8a:2a:
         85:00:14:5f:88:78:da:a6:b0:d9:d4:23:27:6e:3e:79:11:7d:
         12:ed:bd:23:e4:b7:05:aa:1a:8a:12:c6:51:23:47:71:f5:1e:
         93:1c:24:6d:2a:16:c9:cc:ad:ec:a4:92:c1:b1:fc:70:db:a1:
         66:81:5b:31:46:de:d1:d9:9d:8c:b2:65:22:01:25:8e:ac:09:
         f4:97:cf:3b:ff:8b:33:d9:1b:c1:c6:6f:73:e8:f7:f9:5e:9e:
         65:16:fb:2e:e3:2c:87:28:46:c5:1a:cb:aa:16:7c:0b:51:ab:
         62:e2:8d:c4:63:11:99:2c:c9:34:f7:38:b2:49:6e:6a:7b:24:
         9b:81:9e:10:9d:4a:79:de:1b:eb:b5:ac:31:dc:ab:bf:8d:00:
         db:fd:6a:fc:b3:22:d5:38:61:03:05:92:f4:f4:95:5d:37:12:
         7c:d2:36:94:7e:d0:b7:45:3d:01:54:2f:4c:d4:81:05:13:2b:
         9f:8a:65:3e:64:1a:b4:ac:28:d9:4d:35:ce:0b:28:cc:53:89:
         ec:db:27:03:a6:1d:4b:8e:04:f9:1d:93:d4:95:e7:e6:f4:2c:
         97:23:06:c4
-----BEGIN CERTIFICATE-----
MIIC8DCCAdigAwIBAgIBATANBgkqhkiG9w0BAQsFADAkMQswCQYDVQQGEwJVUzEV
MBMGA1UEAwwMVGVzdCBSb290IENBMCAXDTIyMTEwODA5NDE0N1oYDzIwNTAwMzI1
MDk0MTQ3WjAsMQswCQYDVQQGEwJVUzEdMBsGA1UEAwwUVGVzdCBJbnRlcm1lZGlh
dGUgQ0EwggEiMA0GCSqGSIb3DQEBAQUAA4IBDwAwggEKAoIBAQDEU2Hp/CA57t0g
/BsbhW/pP0QCTPaXcR5snAodiL+WsREVpT82DYvGiaoyfSiME7kFZpkh93ntCOKI
gPZBQ8T/mDj7JgH5pJxiGlauTDecBor2VwHEXko+/q/LknccqjjLG0qyksAv0k8A
jtJCGoGLNrB1oCQeDGD6aP9ZecNzkCKZfhlNnElzRgmRs4WcGUDgmwYUenp31B+N
CN+7TPdBd2K21zz+l7NVUb9ZZ1zolkgZvLxRq8fuOBFQSMd/A5OoFxql3GVvbPcT
0OX5VRGEwzxmcSNcl58x6tpLU51pxrswmNOnPB0sz3xTR2eyNB9oACxZGoeSaq7W
bS/WTlTRAgMBAAGjIzAhMA8GA1UdEwEB/wQFMAMBAf8wDgYDVR0PAQH/BAQDAgIE
MA0GCSqGSIb3DQEBCwUAA4IBAQBSnzBeJh3597ZOL97gGYbHyM4ZpCfj206bxWgp
nDqJ4L4SiiqFABRfiHjaprDZ1CMnbj55EX0S7b0j5LcFqhqKEsZRI0dx9R6THCRt
KhbJzK3spJLBsfxw26FmgVsxRt7R2Z2MsmUiASWOrAn0l887/4sz2RvBxm9z6Pf5
Xp5lFvsu4yyHKEbFGsuqFnwLUati4o3EYxGZLMk09ziySW5qeySbgZ4QnUp53hvr
tawx3Ku/jQDb/Wr8syLVOGEDBZL09JVdNxJ80jaUftC3RT0BVC9M1IEFEyufimU+
ZBq0rCjZTTXOCyjMU4ns2ycDph1LjgT5HZPUlefm9CyXIwbE
-----END CERTIFICATE-----
