Certificate:
    Data:
        Version: 1 (0x0)
        Serial Number: 0 (0x0)
        Signature Algorithm: sha256WithRSAEncryption
        Issuer: C=US, CN=Test Intermediate CA
        Validity
            Not Before: Nov  8 09:42:13 2022 GMT
            Not After : Mar 25 09:42:13 2050 GMT
        Subject: C=US, CN=Test Leaf
        Subject Public Key Info:
            Public Key Algorithm: rsaEncryption
                RSA Public-Key: (2048 bit)
                Modulus:
                    00:e0:ae:af:55:eb:68:b5:01:61:c2:05:a4:d9:22:
                    57:25:4b:41:f6:87:91:ac:10:63:05:ba:09:b1:67:
                    f9:a9:de:b7:25:cf:07:2a:01:4b:6d:87:2b:c6:77:
                    1d:d3:76:88:7e:0b:66:75:17:6f:1c:ab:80:8a:c9:
                    c6:51:af:d3:49:f2:44:83:42:d3:59:aa:55:65:28:
                    70:30:5e:83:5a:15:c0:bb:84:c9:77:0d:fc:9b:db:
                    ec:db:4f:76:9a:f4:bd:9b:f9:2e:28:75:a8:e5:a3:
                    37:1f:98:d5:46:86:85:85:c9:e3:cd:a6:50:1b:63:
                    83:c4:e4:ac:54:58:7e:d4:93:b6:3e:cb:f2:ab:be:
                    c1:90:98:6d:3b:76:5c:b3:c5:56:53:9e:b0:32:e2:
                    b3:4b:47:1a:29:ef:fd:6e:7b:af:ea:b2:81:f5:f8:
                    53:e6:2b:61:d4:b4:5c:46:75:69:0e:2f:73:d9:f7:
                    b1:3b:b1:1b:6f:26:3d:17:ba:98:8c:bd:d6:2c:5a:
                    37:83:27:44:ae:6c:cd:89:9c:93:c2:b2:2f:2a:0f:
                    cd:15:b5:20:47:f5:0d:aa:5a:32:7a:a8:22:6c:77:
                    d0:c6:b2:38:77:42:3c:05:02:37:ee:4c:bb:94:d2:
                    b2:8e:17:6a:d5:9b:da:ff:b0:49:2e:2f:3e:f0:f8:
                    e1:c5
                Exponent: 65537 (0x10001)
    Signature Algorithm: sha256WithRSAEncryption
         35:f9:d2:8c:0d:d6:d7:c7:eb:32:8e:8d:63:9f:e4:0e:82:3f:
         9f:62:76:40:59:89:35:e2:ff:ae:51:cd:23:ff:ee:e6:26:78:
         d6:b3:1d:e2:d6:60:38:90:c8:6c:8d:01:16:c1:7e:54:19:95:
         f2:6c:03:7a:b9:04:cf:f1:08:d2:fb:d0:cf:09:43:9c:8c:d2:
         66:59:f3:91:2f:52:de:1a:bf:ec:19:45:0b:0c:a8:74:29:77:
         67:c7:d8:fb:f3:d1:d6:c5:ef:00:aa:23:44:14:6f:43:db:20:
         17:a4:12:f2:15:9a:6d:13:38:f1:13:b6:28:09:33:04:10:47:
         a9:eb:76:64:07:45:f4:55:c1:59:83:dc:09:52:5e:00:ef:94:
         2c:aa:fd:2c:d5:57:71:48:43:57:b7:72:4c:e5:92:fd:1e:c4:
         06:43:b8:d4:bf:1d:dd:7f:c9:f6:7f:ad:18:7f:11:f6:e5:c7:
         23:7c:2c:c9:3a:c3:e7:b8:13:7e:91:97:b7:63:5d:84:3b:a5:
         79:8d:27:f4:02:4c:90:9f:55:5b:57:a0:e5:1e:f3:c7:aa:6a:
         cc:71:72:fc:cd:4f:09:91:25:c0:21:84:7e:be:46:57:26:c8:
         02:ab:4e:1c:2a:5e:a2:10:b3:48:9f:62:f6:b3:a5:02:ea:0a:
         79:fe:18:79
-----BEGIN CERTIFICATE-----
MIICwzCCAasCAQAwDQYJKoZIhvcNAQELBQAwLDELMAkGA1UEBhMCVVMxHTAbBgNV
BAMMFFRlc3QgSW50ZXJtZWRpYXRlIENBMCAXDTIyMTEwODA5NDIxM1oYDzIwNTAw
MzI1MDk0MjEzWjAhMQswCQYDVQQGEwJVUzESMBAGA1UEAwwJVGVzdCBMZWFmMIIB
IjANBgkqhkiG9w0BAQEFAAOCAQ8AMIIBCgKCAQEA4K6vVetotQFhwgWk2SJXJUtB
9oeRrBBjBboJsWf5qd63Jc8HKgFLbYcrxncd03aIfgtmdRdvHKuAisnGUa/TSfJE
g0LTWapVZShwMF6DWhXAu4TJdw38m9vs2092mvS9m/kuKHWo5aM3H5jVRoaFhcnj
zaZQG2ODxOSsVFh+1JO2Psvyq77BkJhtO3Zcs8VWU56wMuKzS0caKe/9bnuv6rKB
9fhT5ith1LRcRnVpDi9z2fexO7EbbyY9F7qYjL3WLFo3gydErmzNiZyTwrIvKg/N
FbUgR/UNqloyeqgibHfQxrI4d0I8BQI37ky7lNKyjhdq1Zva/7BJLi8+8PjhxQID
AQABMA0GCSqGSIb3DQEBCwUAA4IBAQA1+dKMDdbXx+syjo1jn+QOgj+fYnZAWYk1
4v+uUc0j/+7mJnjWsx3i1mA4kMhsjQEWwX5UGZXybAN6uQTP8QjS+9DPCUOcjNJm
WfORL1LeGr/sGUULDKh0KXdnx9j789HWxe8AqiNEFG9D2yAXpBLyFZptEzjxE7Yo
CTMEEEep63ZkB0X0VcFZg9wJUl4A75Qsqv0s1VdxSENXt3JM5ZL9HsQGQ7jUvx3d
f8n2f60YfxH25ccjfCzJOsPnuBN+kZe3Y12EO6V5jSf0AkyQn1VbV6DlHvPHqmrM
cXL8zU8JkSXAIYR+vkZXJsgCq04cKl6iELNIn2L2s6UC6gp5/hh5
-----END CERTIFICATE-----
