Certificate:
    Data:
        Version: 3 (0x2)
        Serial Number: 0 (0x0)
        Signature Algorithm: sha256WithRSAEncryption
        Issuer: C=US, CN=Test Root CA
        Validity
            Not Before: Nov  8 09:41:29 2022 GMT
            Not After : Mar 25 09:41:29 2050 GMT
        Subject: C=US, CN=Test Root CA
        Subject Public Key Info:
            Public Key Algorithm: rsaEncryption
                RSA Public-Key: (2048 bit)
                Modulus:
                    00:f0:6b:f5:7b:34:6c:6b:38:79:97:e4:d7:bc:ba:
                    5c:70:ff:a3:64:3e:05:6f:cf:a3:4e:02:09:86:6a:
                    e1:d6:43:50:20:64:8b:a1:08:a8:82:fb:ca:31:31:
                    96:36:c3:0b:bb:5a:2e:f7:87:93:50:3e:b4:85:3b:
                    02:9b:51:cd:84:ec:91:4c:cb:f1:68:95:1b:90:58:
                    89:96:44:81:2e:e8:a4:0a:ba:9c:04:9d:98:42:dd:
                    4d:d3:22:0a:ec:00:5a:67:1a:27:26:53:93:aa:22:
                    45:fa:f1:3f:12:bb:aa:89:a8:1a:b8:85:eb:4a:81:
                    0a:b6:eb:5c:d7:b5:67:be:93:39:94:bd:28:fa:ed:
                    ab:47:1a:02:05:d0:4d:d9:40:f7:c9:15:83:f6:e4:
                    72:c6:fe:97:c7:df:e5:8e:62:db:0f:43:86:f4:c3:
                    4a:31:b3:03:a6:a9:4f:07:f9:60:92:8e:81:6b:0b:
                    49:6d:81:a1:55:33:ec:be:54:5a:a4:b8:e4:a6:c7:
                    00:65:c3:36:f3:34:40:44:f9:da:ec:8a:5a:c6:fd:
                    08:11:42:a9:18:a2:82:c8:b5:f3:e7:30:ff:e2:28:
                    83:36:5d:e6:f7:25:6f:d2:ab:88:55:07:04:8e:c7:
                    34:ff:a3:32:cc:bf:26:99:c3:11:01:ee:bd:a4:18:
                    9e:dd
                Exponent: 65537 (0x10001)
        X509v3 extensions:
            X509v3 Basic Constraints: critical
                CA:TRUE
            X509v3 Key Usage: critical
                Certificate Sign
    Signature Algorithm: sha256WithRSAEncryption
         7e:2d:48:03:43:83:e2:25:11:82:06:4a:19:d1:38:88:a3:3d:
         ee:3b:9c:69:d4:6a:b0:89:14:d7:84:71:72:86:64:c7:f7:8f:
         bb:52:58:f3:c8:fe:2a:3b:21:37:82:47:12:fe:8c:16:59:75:
         c5:9e:b5:38:5e:cd:b8:e1:07:a4:55:2c:69:c9:02:17:46:88:
         ee:f0:68:63:86:37:4c:f2:5a:e3:45:6d:3e:df:9d:92:9a:9c:
         71:b4:4e:0c:7e:48:f1:f0:66:3f:92:ee:5f:13:28:1b:36:be:
         c3:d5:b4:04:f6:93:41:dd:22:72:e2:dd:42:96:c3:81:b4:55:
         13:2c:8b:f6:82:37:0c:a0:6b:14:10:c1:28:a5:b0:27:c8:b1:
         0d:8e:7c:ad:c8:43:86:6f:c9:42:04:7b:25:8f:b2:6c:e9:27:
         92:08:57:26:e4:ca:47:3d:d2:76:63:d7:05:b5:42:5e:e9:54:
         51:b6:30:2c:90:80:cc:fe:ea:20:1c:f4:ba:1b:53:85:86:24:
         c9:74:6b:a2:0e:3b:af:c6:c2:d9:3a:14:6f:b7:81:29:79:49:
         d8:b5:dc:ee:3a:d2:2d:4b:2f:18:ad:eb:83:8a:c0:ba:fe:45:
         63:5f:3c:33:f1:32:5d:b9:87:52:16:86:07:b2:19:8c:41:c9:
         f4:11:bc:1c
-----BEGIN CERTIFICATE-----
MIIC6DCCAdCgAwIBAgIBADANBgkqhkiG9w0BAQsFADAkMQswCQYDVQQGEwJVUzEV
MBMGA1UEAwwMVGVzdCBSb290IENBMCAXDTIyMTEwODA5NDEyOVoYDzIwNTAwMzI1
MDk0MTI5WjAkMQswCQYDVQQGEwJVUzEVMBMGA1UEAwwMVGVzdCBSb290IENBMIIB
IjANBgkqhkiG9w0BAQEFAAOCAQ8AMIIBCgKCAQEA8Gv1ezRsazh5l+TXvLpccP+j
ZD4Fb8+jTgIJhmrh1kNQIGSLoQiogvvKMTGWNsMLu1ou94eTUD60hTsCm1HNhOyR
TMvxaJUbkFiJlkSBLuikCrqcBJ2YQt1N0yIK7ABaZxonJlOTqiJF+vE/Eruqiaga
uIXrSoEKtutc17VnvpM5lL0o+u2rRxoCBdBN2UD3yRWD9uRyxv6Xx9/ljmLbD0OG
9MNKMbMDpqlPB/lgko6BawtJbYGhVTPsvlRapLjkpscAZcM28zRARPna7Ipaxv0I
EUKpGKKCyLXz5zD/4iiDNl3m9yVv0quIVQcEjsc0/6MyzL8mmcMRAe69pBie3QID
AQABoyMwITAPBgNVHRMBAf8EBTADAQH/MA4GA1UdDwEB/wQEAwICBDANBgkqhkiG
9w0BAQsFAAOCAQEAfi1IA0OD4iURggZKGdE4iKM97jucadRqsIkU14RxcoZkx/eP
u1JY88j+KjshN4JHEv6MFll1xZ61OF7NuOEHpFUsackCF0aI7vBoY4Y3TPJa40Vt
Pt+dkpqccbRODH5I8fBmP5LuXxMoGza+w9W0BPaTQd0icuLdQpbDgbRVEyyL9oI3
DKBrFBDBKKWwJ8ixDY58rchDhm/JQgR7JY+ybOknkghXJuTKRz3SdmPXBbVCXulU
UbYwLJCAzP7qIBz0uhtThYYkyXRrog47r8bC2ToUb7eBKXlJ2LXc7jrSLUsvGK3r
g4rAuv5FY188M/EyXbmHUhaGB7IZjEHJ9BG8HA==
-----END CERTIFICATE-----
